target datalayout = "e-m:e-p270:32:32-p271:32:32-p272:64:64-i64:64-i128:128-f80:128-n8:16:32:64-S128"
target triple = "x86_64-pc-linux-gnu"

%struct.pana_cs6_page_decoder = type { [18 x i32], i32, i32, i8, ptr }

@_ZTI17LibRaw_exceptions = linkonce_odr constant { ptr, ptr } { ptr getelementptr inbounds (ptr, ptr @_ZTVN10__cxxabiv116__enum_type_infoE, i64 2), ptr @_ZTS17LibRaw_exceptions }, comdat, align 8

; Function Attrs: mustprogress uwtable
define void @_ZN21pana_cs6_page_decoder9read_pageEv(ptr noundef nonnull align 8 dereferenceable(96) %0) #0 align 2 {
  %2 = alloca ptr, align 8
  store ptr %0, ptr %2, align 8, !tbaa !145
  %3 = load ptr, ptr %2, align 8
  %4 = getelementptr inbounds nuw %struct.pana_cs6_page_decoder, ptr %3, i32 0, i32 4
  %5 = load ptr, ptr %4, align 8, !tbaa !147
  %6 = icmp ne ptr %5, null
  br i1 %6, label %7, label %14

7:                                                ; preds = %1
  %8 = getelementptr inbounds nuw %struct.pana_cs6_page_decoder, ptr %3, i32 0, i32 2
  %9 = load i32, ptr %8, align 4, !tbaa !149
  %10 = getelementptr inbounds nuw %struct.pana_cs6_page_decoder, ptr %3, i32 0, i32 1
  %11 = load i32, ptr %10, align 8, !tbaa !150
  %12 = sub i32 %9, %11
  %13 = icmp ult i32 %12, 16
  br i1 %13, label %14, label %16

14:                                               ; preds = %7, %1
  %15 = call ptr @__cxa_allocate_exception(i64 4) #14
  store i32 4, ptr %15, align 16, !tbaa !74
  call void @__cxa_throw(ptr %15, ptr @_ZTI17LibRaw_exceptions, ptr null) #15
  unreachable

16:                                               ; preds = %7
  %17 = getelementptr inbounds nuw %struct.pana_cs6_page_decoder, ptr %3, i32 0, i32 4
  %18 = load ptr, ptr %17, align 8, !tbaa !147
  %19 = getelementptr inbounds nuw %struct.pana_cs6_page_decoder, ptr %3, i32 0, i32 1
  %20 = load i32, ptr %19, align 8, !tbaa !150
  %21 = add i32 %20, 15
  %22 = sub i32 %21, 0
  %23 = zext i32 %22 to i64
  %24 = getelementptr inbounds nuw i8, ptr %18, i64 %23
  %25 = load i8, ptr %24, align 1, !tbaa !95
  %26 = zext i8 %25 to i16
  %27 = zext i16 %26 to i32
  %28 = shl i32 %27, 6
  %29 = getelementptr inbounds nuw %struct.pana_cs6_page_decoder, ptr %3, i32 0, i32 4
  %30 = load ptr, ptr %29, align 8, !tbaa !147
  %31 = getelementptr inbounds nuw %struct.pana_cs6_page_decoder, ptr %3, i32 0, i32 1
  %32 = load i32, ptr %31, align 8, !tbaa !150
  %33 = add i32 %32, 15
  %34 = sub i32 %33, 1
  %35 = zext i32 %34 to i64
  %36 = getelementptr inbounds nuw i8, ptr %30, i64 %35
  %37 = load i8, ptr %36, align 1, !tbaa !95
  %38 = zext i8 %37 to i16
  %39 = zext i16 %38 to i32
  %40 = ashr i32 %39, 2
  %41 = or i32 %28, %40
  %42 = getelementptr inbounds nuw %struct.pana_cs6_page_decoder, ptr %3, i32 0, i32 0
  %43 = getelementptr inbounds [18 x i32], ptr %42, i64 0, i64 0
  store i32 %41, ptr %43, align 8, !tbaa !83
  %44 = getelementptr inbounds nuw %struct.pana_cs6_page_decoder, ptr %3, i32 0, i32 4
  %45 = load ptr, ptr %44, align 8, !tbaa !147
  %46 = getelementptr inbounds nuw %struct.pana_cs6_page_decoder, ptr %3, i32 0, i32 1
  %47 = load i32, ptr %46, align 8, !tbaa !150
  %48 = add i32 %47, 15
  %49 = sub i32 %48, 1
  %50 = zext i32 %49 to i64
  %51 = getelementptr inbounds nuw i8, ptr %45, i64 %50
  %52 = load i8, ptr %51, align 1, !tbaa !95
  %53 = zext i8 %52 to i16
  %54 = zext i16 %53 to i32
  %55 = and i32 %54, 3
  %56 = shl i32 %55, 12
  %57 = getelementptr inbounds nuw %struct.pana_cs6_page_decoder, ptr %3, i32 0, i32 4
  %58 = load ptr, ptr %57, align 8, !tbaa !147
  %59 = getelementptr inbounds nuw %struct.pana_cs6_page_decoder, ptr %3, i32 0, i32 1
  %60 = load i32, ptr %59, align 8, !tbaa !150
  %61 = add i32 %60, 15
  %62 = sub i32 %61, 2
  %63 = zext i32 %62 to i64
  %64 = getelementptr inbounds nuw i8, ptr %58, i64 %63
  %65 = load i8, ptr %64, align 1, !tbaa !95
  %66 = zext i8 %65 to i16
  %67 = zext i16 %66 to i32
  %68 = shl i32 %67, 4
  %69 = or i32 %56, %68
  %70 = getelementptr inbounds nuw %struct.pana_cs6_page_decoder, ptr %3, i32 0, i32 4
  %71 = load ptr, ptr %70, align 8, !tbaa !147
  %72 = getelementptr inbounds nuw %struct.pana_cs6_page_decoder, ptr %3, i32 0, i32 1
  %73 = load i32, ptr %72, align 8, !tbaa !150
  %74 = add i32 %73, 15
  %75 = sub i32 %74, 3
  %76 = zext i32 %75 to i64
  %77 = getelementptr inbounds nuw i8, ptr %71, i64 %76
  %78 = load i8, ptr %77, align 1, !tbaa !95
  %79 = zext i8 %78 to i16
  %80 = zext i16 %79 to i32
  %81 = ashr i32 %80, 4
  %82 = or i32 %69, %81
  %83 = and i32 %82, 16383
  %84 = getelementptr inbounds nuw %struct.pana_cs6_page_decoder, ptr %3, i32 0, i32 0
  %85 = getelementptr inbounds [18 x i32], ptr %84, i64 0, i64 1
  store i32 %83, ptr %85, align 4, !tbaa !83
  %86 = getelementptr inbounds nuw %struct.pana_cs6_page_decoder, ptr %3, i32 0, i32 4
  %87 = load ptr, ptr %86, align 8, !tbaa !147
  %88 = getelementptr inbounds nuw %struct.pana_cs6_page_decoder, ptr %3, i32 0, i32 1
  %89 = load i32, ptr %88, align 8, !tbaa !150
  %90 = add i32 %89, 15
  %91 = sub i32 %90, 3
  %92 = zext i32 %91 to i64
  %93 = getelementptr inbounds nuw i8, ptr %87, i64 %92
  %94 = load i8, ptr %93, align 1, !tbaa !95
  %95 = zext i8 %94 to i16
  %96 = zext i16 %95 to i32
  %97 = ashr i32 %96, 2
  %98 = and i32 %97, 3
  %99 = getelementptr inbounds nuw %struct.pana_cs6_page_decoder, ptr %3, i32 0, i32 0
  %100 = getelementptr inbounds [18 x i32], ptr %99, i64 0, i64 2
  store i32 %98, ptr %100, align 8, !tbaa !83
  %101 = getelementptr inbounds nuw %struct.pana_cs6_page_decoder, ptr %3, i32 0, i32 4
  %102 = load ptr, ptr %101, align 8, !tbaa !147
  %103 = getelementptr inbounds nuw %struct.pana_cs6_page_decoder, ptr %3, i32 0, i32 1
  %104 = load i32, ptr %103, align 8, !tbaa !150
  %105 = add i32 %104, 15
  %106 = sub i32 %105, 3
  %107 = zext i32 %106 to i64
  %108 = getelementptr inbounds nuw i8, ptr %102, i64 %107
  %109 = load i8, ptr %108, align 1, !tbaa !95
  %110 = zext i8 %109 to i16
  %111 = zext i16 %110 to i32
  %112 = and i32 %111, 3
  %113 = shl i32 %112, 8
  %114 = getelementptr inbounds nuw %struct.pana_cs6_page_decoder, ptr %3, i32 0, i32 4
  %115 = load ptr, ptr %114, align 8, !tbaa !147
  %116 = getelementptr inbounds nuw %struct.pana_cs6_page_decoder, ptr %3, i32 0, i32 1
  %117 = load i32, ptr %116, align 8, !tbaa !150
  %118 = add i32 %117, 15
  %119 = sub i32 %118, 4
  %120 = zext i32 %119 to i64
  %121 = getelementptr inbounds nuw i8, ptr %115, i64 %120
  %122 = load i8, ptr %121, align 1, !tbaa !95
  %123 = zext i8 %122 to i16
  %124 = zext i16 %123 to i32
  %125 = or i32 %113, %124
  %126 = getelementptr inbounds nuw %struct.pana_cs6_page_decoder, ptr %3, i32 0, i32 0
  %127 = getelementptr inbounds [18 x i32], ptr %126, i64 0, i64 3
  store i32 %125, ptr %127, align 4, !tbaa !83
  %128 = getelementptr inbounds nuw %struct.pana_cs6_page_decoder, ptr %3, i32 0, i32 4
  %129 = load ptr, ptr %128, align 8, !tbaa !147
  %130 = getelementptr inbounds nuw %struct.pana_cs6_page_decoder, ptr %3, i32 0, i32 1
  %131 = load i32, ptr %130, align 8, !tbaa !150
  %132 = add i32 %131, 15
  %133 = sub i32 %132, 5
  %134 = zext i32 %133 to i64
  %135 = getelementptr inbounds nuw i8, ptr %129, i64 %134
  %136 = load i8, ptr %135, align 1, !tbaa !95
  %137 = zext i8 %136 to i16
  %138 = zext i16 %137 to i32
  %139 = shl i32 %138, 2
  %140 = getelementptr inbounds nuw %struct.pana_cs6_page_decoder, ptr %3, i32 0, i32 4
  %141 = load ptr, ptr %140, align 8, !tbaa !147
  %142 = getelementptr inbounds nuw %struct.pana_cs6_page_decoder, ptr %3, i32 0, i32 1
  %143 = load i32, ptr %142, align 8, !tbaa !150
  %144 = add i32 %143, 15
  %145 = sub i32 %144, 6
  %146 = zext i32 %145 to i64
  %147 = getelementptr inbounds nuw i8, ptr %141, i64 %146
  %148 = load i8, ptr %147, align 1, !tbaa !95
  %149 = zext i8 %148 to i16
  %150 = zext i16 %149 to i32
  %151 = ashr i32 %150, 6
  %152 = or i32 %139, %151
  %153 = getelementptr inbounds nuw %struct.pana_cs6_page_decoder, ptr %3, i32 0, i32 0
  %154 = getelementptr inbounds [18 x i32], ptr %153, i64 0, i64 4
  store i32 %152, ptr %154, align 8, !tbaa !83
  %155 = getelementptr inbounds nuw %struct.pana_cs6_page_decoder, ptr %3, i32 0, i32 4
  %156 = load ptr, ptr %155, align 8, !tbaa !147
  %157 = getelementptr inbounds nuw %struct.pana_cs6_page_decoder, ptr %3, i32 0, i32 1
  %158 = load i32, ptr %157, align 8, !tbaa !150
  %159 = add i32 %158, 15
  %160 = sub i32 %159, 6
  %161 = zext i32 %160 to i64
  %162 = getelementptr inbounds nuw i8, ptr %156, i64 %161
  %163 = load i8, ptr %162, align 1, !tbaa !95
  %164 = zext i8 %163 to i16
  %165 = zext i16 %164 to i32
  %166 = and i32 %165, 63
  %167 = shl i32 %166, 4
  %168 = getelementptr inbounds nuw %struct.pana_cs6_page_decoder, ptr %3, i32 0, i32 4
  %169 = load ptr, ptr %168, align 8, !tbaa !147
  %170 = getelementptr inbounds nuw %struct.pana_cs6_page_decoder, ptr %3, i32 0, i32 1
  %171 = load i32, ptr %170, align 8, !tbaa !150
  %172 = add i32 %171, 15
  %173 = sub i32 %172, 7
  %174 = zext i32 %173 to i64
  %175 = getelementptr inbounds nuw i8, ptr %169, i64 %174
  %176 = load i8, ptr %175, align 1, !tbaa !95
  %177 = zext i8 %176 to i16
  %178 = zext i16 %177 to i32
  %179 = ashr i32 %178, 4
  %180 = or i32 %167, %179
  %181 = getelementptr inbounds nuw %struct.pana_cs6_page_decoder, ptr %3, i32 0, i32 0
  %182 = getelementptr inbounds [18 x i32], ptr %181, i64 0, i64 5
  store i32 %180, ptr %182, align 4, !tbaa !83
  %183 = getelementptr inbounds nuw %struct.pana_cs6_page_decoder, ptr %3, i32 0, i32 4
  %184 = load ptr, ptr %183, align 8, !tbaa !147
  %185 = getelementptr inbounds nuw %struct.pana_cs6_page_decoder, ptr %3, i32 0, i32 1
  %186 = load i32, ptr %185, align 8, !tbaa !150
  %187 = add i32 %186, 15
  %188 = sub i32 %187, 7
  %189 = zext i32 %188 to i64
  %190 = getelementptr inbounds nuw i8, ptr %184, i64 %189
  %191 = load i8, ptr %190, align 1, !tbaa !95
  %192 = zext i8 %191 to i16
  %193 = zext i16 %192 to i32
  %194 = ashr i32 %193, 2
  %195 = and i32 %194, 3
  %196 = getelementptr inbounds nuw %struct.pana_cs6_page_decoder, ptr %3, i32 0, i32 0
  %197 = getelementptr inbounds [18 x i32], ptr %196, i64 0, i64 6
  store i32 %195, ptr %197, align 8, !tbaa !83
  %198 = getelementptr inbounds nuw %struct.pana_cs6_page_decoder, ptr %3, i32 0, i32 4
  %199 = load ptr, ptr %198, align 8, !tbaa !147
  %200 = getelementptr inbounds nuw %struct.pana_cs6_page_decoder, ptr %3, i32 0, i32 1
  %201 = load i32, ptr %200, align 8, !tbaa !150
  %202 = add i32 %201, 15
  %203 = sub i32 %202, 7
  %204 = zext i32 %203 to i64
  %205 = getelementptr inbounds nuw i8, ptr %199, i64 %204
  %206 = load i8, ptr %205, align 1, !tbaa !95
  %207 = zext i8 %206 to i16
  %208 = zext i16 %207 to i32
  %209 = and i32 %208, 3
  %210 = shl i32 %209, 8
  %211 = getelementptr inbounds nuw %struct.pana_cs6_page_decoder, ptr %3, i32 0, i32 4
  %212 = load ptr, ptr %211, align 8, !tbaa !147
  %213 = getelementptr inbounds nuw %struct.pana_cs6_page_decoder, ptr %3, i32 0, i32 1
  %214 = load i32, ptr %213, align 8, !tbaa !150
  %215 = add i32 %214, 15
  %216 = sub i32 %215, 8
  %217 = zext i32 %216 to i64
  %218 = getelementptr inbounds nuw i8, ptr %212, i64 %217
  %219 = load i8, ptr %218, align 1, !tbaa !95
  %220 = zext i8 %219 to i16
  %221 = zext i16 %220 to i32
  %222 = or i32 %210, %221
  %223 = getelementptr inbounds nuw %struct.pana_cs6_page_decoder, ptr %3, i32 0, i32 0
  %224 = getelementptr inbounds [18 x i32], ptr %223, i64 0, i64 7
  store i32 %222, ptr %224, align 4, !tbaa !83
  %225 = getelementptr inbounds nuw %struct.pana_cs6_page_decoder, ptr %3, i32 0, i32 4
  %226 = load ptr, ptr %225, align 8, !tbaa !147
  %227 = getelementptr inbounds nuw %struct.pana_cs6_page_decoder, ptr %3, i32 0, i32 1
  %228 = load i32, ptr %227, align 8, !tbaa !150
  %229 = add i32 %228, 15
  %230 = sub i32 %229, 9
  %231 = zext i32 %230 to i64
  %232 = getelementptr inbounds nuw i8, ptr %226, i64 %231
  %233 = load i8, ptr %232, align 1, !tbaa !95
  %234 = zext i8 %233 to i16
  %235 = zext i16 %234 to i32
  %236 = shl i32 %235, 2
  %237 = and i32 %236, 1020
  %238 = getelementptr inbounds nuw %struct.pana_cs6_page_decoder, ptr %3, i32 0, i32 4
  %239 = load ptr, ptr %238, align 8, !tbaa !147
  %240 = getelementptr inbounds nuw %struct.pana_cs6_page_decoder, ptr %3, i32 0, i32 1
  %241 = load i32, ptr %240, align 8, !tbaa !150
  %242 = add i32 %241, 15
  %243 = sub i32 %242, 10
  %244 = zext i32 %243 to i64
  %245 = getelementptr inbounds nuw i8, ptr %239, i64 %244
  %246 = load i8, ptr %245, align 1, !tbaa !95
  %247 = zext i8 %246 to i16
  %248 = zext i16 %247 to i32
  %249 = ashr i32 %248, 6
  %250 = or i32 %237, %249
  %251 = getelementptr inbounds nuw %struct.pana_cs6_page_decoder, ptr %3, i32 0, i32 0
  %252 = getelementptr inbounds [18 x i32], ptr %251, i64 0, i64 8
  store i32 %250, ptr %252, align 8, !tbaa !83
  %253 = getelementptr inbounds nuw %struct.pana_cs6_page_decoder, ptr %3, i32 0, i32 4
  %254 = load ptr, ptr %253, align 8, !tbaa !147
  %255 = getelementptr inbounds nuw %struct.pana_cs6_page_decoder, ptr %3, i32 0, i32 1
  %256 = load i32, ptr %255, align 8, !tbaa !150
  %257 = add i32 %256, 15
  %258 = sub i32 %257, 10
  %259 = zext i32 %258 to i64
  %260 = getelementptr inbounds nuw i8, ptr %254, i64 %259
  %261 = load i8, ptr %260, align 1, !tbaa !95
  %262 = zext i8 %261 to i16
  %263 = zext i16 %262 to i32
  %264 = shl i32 %263, 4
  %265 = getelementptr inbounds nuw %struct.pana_cs6_page_decoder, ptr %3, i32 0, i32 4
  %266 = load ptr, ptr %265, align 8, !tbaa !147
  %267 = getelementptr inbounds nuw %struct.pana_cs6_page_decoder, ptr %3, i32 0, i32 1
  %268 = load i32, ptr %267, align 8, !tbaa !150
  %269 = add i32 %268, 15
  %270 = sub i32 %269, 11
  %271 = zext i32 %270 to i64
  %272 = getelementptr inbounds nuw i8, ptr %266, i64 %271
  %273 = load i8, ptr %272, align 1, !tbaa !95
  %274 = zext i8 %273 to i16
  %275 = zext i16 %274 to i32
  %276 = ashr i32 %275, 4
  %277 = or i32 %264, %276
  %278 = and i32 %277, 1023
  %279 = getelementptr inbounds nuw %struct.pana_cs6_page_decoder, ptr %3, i32 0, i32 0
  %280 = getelementptr inbounds [18 x i32], ptr %279, i64 0, i64 9
  store i32 %278, ptr %280, align 4, !tbaa !83
  %281 = getelementptr inbounds nuw %struct.pana_cs6_page_decoder, ptr %3, i32 0, i32 4
  %282 = load ptr, ptr %281, align 8, !tbaa !147
  %283 = getelementptr inbounds nuw %struct.pana_cs6_page_decoder, ptr %3, i32 0, i32 1
  %284 = load i32, ptr %283, align 8, !tbaa !150
  %285 = add i32 %284, 15
  %286 = sub i32 %285, 11
  %287 = zext i32 %286 to i64
  %288 = getelementptr inbounds nuw i8, ptr %282, i64 %287
  %289 = load i8, ptr %288, align 1, !tbaa !95
  %290 = zext i8 %289 to i16
  %291 = zext i16 %290 to i32
  %292 = ashr i32 %291, 2
  %293 = and i32 %292, 3
  %294 = getelementptr inbounds nuw %struct.pana_cs6_page_decoder, ptr %3, i32 0, i32 0
  %295 = getelementptr inbounds [18 x i32], ptr %294, i64 0, i64 10
  store i32 %293, ptr %295, align 8, !tbaa !83
  %296 = getelementptr inbounds nuw %struct.pana_cs6_page_decoder, ptr %3, i32 0, i32 4
  %297 = load ptr, ptr %296, align 8, !tbaa !147
  %298 = getelementptr inbounds nuw %struct.pana_cs6_page_decoder, ptr %3, i32 0, i32 1
  %299 = load i32, ptr %298, align 8, !tbaa !150
  %300 = add i32 %299, 15
  %301 = sub i32 %300, 11
  %302 = zext i32 %301 to i64
  %303 = getelementptr inbounds nuw i8, ptr %297, i64 %302
  %304 = load i8, ptr %303, align 1, !tbaa !95
  %305 = zext i8 %304 to i16
  %306 = zext i16 %305 to i32
  %307 = and i32 %306, 3
  %308 = shl i32 %307, 8
  %309 = getelementptr inbounds nuw %struct.pana_cs6_page_decoder, ptr %3, i32 0, i32 4
  %310 = load ptr, ptr %309, align 8, !tbaa !147
  %311 = getelementptr inbounds nuw %struct.pana_cs6_page_decoder, ptr %3, i32 0, i32 1
  %312 = load i32, ptr %311, align 8, !tbaa !150
  %313 = add i32 %312, 15
  %314 = sub i32 %313, 12
  %315 = zext i32 %314 to i64
  %316 = getelementptr inbounds nuw i8, ptr %310, i64 %315
  %317 = load i8, ptr %316, align 1, !tbaa !95
  %318 = zext i8 %317 to i16
  %319 = zext i16 %318 to i32
  %320 = or i32 %308, %319
  %321 = getelementptr inbounds nuw %struct.pana_cs6_page_decoder, ptr %3, i32 0, i32 0
  %322 = getelementptr inbounds [18 x i32], ptr %321, i64 0, i64 11
  store i32 %320, ptr %322, align 4, !tbaa !83
  %323 = getelementptr inbounds nuw %struct.pana_cs6_page_decoder, ptr %3, i32 0, i32 4
  %324 = load ptr, ptr %323, align 8, !tbaa !147
  %325 = getelementptr inbounds nuw %struct.pana_cs6_page_decoder, ptr %3, i32 0, i32 1
  %326 = load i32, ptr %325, align 8, !tbaa !150
  %327 = add i32 %326, 15
  %328 = sub i32 %327, 13
  %329 = zext i32 %328 to i64
  %330 = getelementptr inbounds nuw i8, ptr %324, i64 %329
  %331 = load i8, ptr %330, align 1, !tbaa !95
  %332 = zext i8 %331 to i16
  %333 = zext i16 %332 to i32
  %334 = shl i32 %333, 2
  %335 = and i32 %334, 1020
  %336 = getelementptr inbounds nuw %struct.pana_cs6_page_decoder, ptr %3, i32 0, i32 4
  %337 = load ptr, ptr %336, align 8, !tbaa !147
  %338 = getelementptr inbounds nuw %struct.pana_cs6_page_decoder, ptr %3, i32 0, i32 1
  %339 = load i32, ptr %338, align 8, !tbaa !150
  %340 = add i32 %339, 15
  %341 = sub i32 %340, 14
  %342 = zext i32 %341 to i64
  %343 = getelementptr inbounds nuw i8, ptr %337, i64 %342
  %344 = load i8, ptr %343, align 1, !tbaa !95
  %345 = zext i8 %344 to i16
  %346 = zext i16 %345 to i32
  %347 = ashr i32 %346, 6
  %348 = or i32 %335, %347
  %349 = and i32 %348, 1023
  %350 = getelementptr inbounds nuw %struct.pana_cs6_page_decoder, ptr %3, i32 0, i32 0
  %351 = getelementptr inbounds [18 x i32], ptr %350, i64 0, i64 12
  store i32 %349, ptr %351, align 8, !tbaa !83
  %352 = getelementptr inbounds nuw %struct.pana_cs6_page_decoder, ptr %3, i32 0, i32 4
  %353 = load ptr, ptr %352, align 8, !tbaa !147
  %354 = getelementptr inbounds nuw %struct.pana_cs6_page_decoder, ptr %3, i32 0, i32 1
  %355 = load i32, ptr %354, align 8, !tbaa !150
  %356 = add i32 %355, 15
  %357 = sub i32 %356, 14
  %358 = zext i32 %357 to i64
  %359 = getelementptr inbounds nuw i8, ptr %353, i64 %358
  %360 = load i8, ptr %359, align 1, !tbaa !95
  %361 = zext i8 %360 to i16
  %362 = zext i16 %361 to i32
  %363 = shl i32 %362, 4
  %364 = getelementptr inbounds nuw %struct.pana_cs6_page_decoder, ptr %3, i32 0, i32 4
  %365 = load ptr, ptr %364, align 8, !tbaa !147
  %366 = getelementptr inbounds nuw %struct.pana_cs6_page_decoder, ptr %3, i32 0, i32 1
  %367 = load i32, ptr %366, align 8, !tbaa !150
  %368 = add i32 %367, 15
  %369 = sub i32 %368, 15
  %370 = zext i32 %369 to i64
  %371 = getelementptr inbounds nuw i8, ptr %365, i64 %370
  %372 = load i8, ptr %371, align 1, !tbaa !95
  %373 = zext i8 %372 to i16
  %374 = zext i16 %373 to i32
  %375 = ashr i32 %374, 4
  %376 = or i32 %363, %375
  %377 = and i32 %376, 1023
  %378 = getelementptr inbounds nuw %struct.pana_cs6_page_decoder, ptr %3, i32 0, i32 0
  %379 = getelementptr inbounds [18 x i32], ptr %378, i64 0, i64 13
  store i32 %377, ptr %379, align 4, !tbaa !83
  %380 = getelementptr inbounds nuw %struct.pana_cs6_page_decoder, ptr %3, i32 0, i32 3
  store i8 0, ptr %380, align 8, !tbaa !151
  %381 = getelementptr inbounds nuw %struct.pana_cs6_page_decoder, ptr %3, i32 0, i32 1
  %382 = load i32, ptr %381, align 8, !tbaa !150
  %383 = add i32 %382, 16
  store i32 %383, ptr %381, align 8, !tbaa !150
  ret void
}