; Function Attrs: mustprogress uwtable
define void @_ZN21pana_cs6_page_decoder9read_pageEv(ptr noundef nonnull align 8 captures(none) dereferenceable(96) %0) local_unnamed_addr #0 align 2 {
  %2 = getelementptr inbounds nuw i8, ptr %0, i64 88
  %3 = load ptr, ptr %2, align 8, !tbaa !137
  %.not = icmp eq ptr %3, null
  br i1 %.not, label %11, label %4

4:                                                ; preds = %1
  %5 = getelementptr inbounds nuw i8, ptr %0, i64 76
  %6 = load i32, ptr %5, align 4, !tbaa !139
  %7 = getelementptr inbounds nuw i8, ptr %0, i64 72
  %8 = load i32, ptr %7, align 8, !tbaa !140
  %9 = sub i32 %6, %8
  %10 = icmp ult i32 %9, 16
  br i1 %10, label %11, label %13

11:                                               ; preds = %4, %1
  %12 = tail call ptr @__cxa_allocate_exception(i64 4) #13
  store i32 4, ptr %12, align 16, !tbaa !71
  tail call void @__cxa_throw(ptr nonnull %12, ptr nonnull @_ZTI17LibRaw_exceptions, ptr null) #14
  unreachable

13:                                               ; preds = %4
  %14 = add i32 %8, 15
  %15 = zext i32 %14 to i64
  %16 = getelementptr inbounds nuw i8, ptr %3, i64 %15
  %17 = load i8, ptr %16, align 1, !tbaa !89
  %18 = zext i8 %17 to i32
  %19 = shl nuw nsw i32 %18, 6
  %20 = add i32 %8, 14
  %21 = zext i32 %20 to i64
  %22 = getelementptr inbounds nuw i8, ptr %3, i64 %21
  %23 = load i8, ptr %22, align 1, !tbaa !89
  %24 = lshr i8 %23, 2
  %25 = zext nneg i8 %24 to i32
  %26 = or disjoint i32 %19, %25
  store i32 %26, ptr %0, align 8, !tbaa !103
  %27 = load i8, ptr %22, align 1, !tbaa !89
  %28 = zext i8 %27 to i32
  %29 = shl nuw nsw i32 %28, 12
  %30 = add i32 %8, 13
  %31 = zext i32 %30 to i64
  %32 = getelementptr inbounds nuw i8, ptr %3, i64 %31
  %33 = load i8, ptr %32, align 1, !tbaa !89
  %34 = zext i8 %33 to i32
  %35 = shl nuw nsw i32 %34, 4
  %36 = add i32 %8, 12
  %37 = zext i32 %36 to i64
  %38 = getelementptr inbounds nuw i8, ptr %3, i64 %37
  %39 = load i8, ptr %38, align 1, !tbaa !89
  %40 = lshr i8 %39, 4
  %41 = zext nneg i8 %40 to i32
  %.masked1 = and i32 %29, 12288
  %.masked = or disjoint i32 %.masked1, %35
  %42 = or disjoint i32 %.masked, %41
  %43 = getelementptr inbounds nuw i8, ptr %0, i64 4
  store i32 %42, ptr %43, align 4, !tbaa !103
  %44 = load i8, ptr %38, align 1, !tbaa !89
  %45 = lshr i8 %44, 2
  %46 = and i8 %45, 3
  %47 = zext nneg i8 %46 to i32
  %48 = getelementptr inbounds nuw i8, ptr %0, i64 8
  store i32 %47, ptr %48, align 8, !tbaa !103
  %49 = load i8, ptr %38, align 1, !tbaa !89
  %50 = and i8 %49, 3
  %51 = zext nneg i8 %50 to i32
  %52 = shl nuw nsw i32 %51, 8
  %53 = add i32 %8, 11
  %54 = zext i32 %53 to i64
  %55 = getelementptr inbounds nuw i8, ptr %3, i64 %54
  %56 = load i8, ptr %55, align 1, !tbaa !89
  %57 = zext i8 %56 to i32
  %58 = or disjoint i32 %52, %57
  %59 = getelementptr inbounds nuw i8, ptr %0, i64 12
  store i32 %58, ptr %59, align 4, !tbaa !103
  %60 = add i32 %8, 10
  %61 = zext i32 %60 to i64
  %62 = getelementptr inbounds nuw i8, ptr %3, i64 %61
  %63 = load i8, ptr %62, align 1, !tbaa !89
  %64 = zext i8 %63 to i32
  %65 = shl nuw nsw i32 %64, 2
  %66 = add i32 %8, 9
  %67 = zext i32 %66 to i64
  %68 = getelementptr inbounds nuw i8, ptr %3, i64 %67
  %69 = load i8, ptr %68, align 1, !tbaa !89
  %70 = lshr i8 %69, 6
  %71 = zext nneg i8 %70 to i32
  %72 = or disjoint i32 %65, %71
  %73 = getelementptr inbounds nuw i8, ptr %0, i64 16
  store i32 %72, ptr %73, align 8, !tbaa !103
  %74 = load i8, ptr %68, align 1, !tbaa !89
  %75 = and i8 %74, 63
  %76 = zext nneg i8 %75 to i32
  %77 = shl nuw nsw i32 %76, 4
  %78 = add i32 %8, 8
  %79 = zext i32 %78 to i64
  %80 = getelementptr inbounds nuw i8, ptr %3, i64 %79
  %81 = load i8, ptr %80, align 1, !tbaa !89
  %82 = lshr i8 %81, 4
  %83 = zext nneg i8 %82 to i32
  %84 = or disjoint i32 %77, %83
  %85 = getelementptr inbounds nuw i8, ptr %0, i64 20
  store i32 %84, ptr %85, align 4, !tbaa !103
  %86 = load i8, ptr %80, align 1, !tbaa !89
  %87 = lshr i8 %86, 2
  %88 = and i8 %87, 3
  %89 = zext nneg i8 %88 to i32
  %90 = getelementptr inbounds nuw i8, ptr %0, i64 24
  store i32 %89, ptr %90, align 8, !tbaa !103
  %91 = load i8, ptr %80, align 1, !tbaa !89
  %92 = and i8 %91, 3
  %93 = zext nneg i8 %92 to i32
  %94 = shl nuw nsw i32 %93, 8
  %95 = add i32 %8, 7
  %96 = zext i32 %95 to i64
  %97 = getelementptr inbounds nuw i8, ptr %3, i64 %96
  %98 = load i8, ptr %97, align 1, !tbaa !89
  %99 = zext i8 %98 to i32
  %100 = or disjoint i32 %94, %99
  %101 = getelementptr inbounds nuw i8, ptr %0, i64 28
  store i32 %100, ptr %101, align 4, !tbaa !103
  %102 = add i32 %8, 6
  %103 = zext i32 %102 to i64
  %104 = getelementptr inbounds nuw i8, ptr %3, i64 %103
  %105 = load i8, ptr %104, align 1, !tbaa !89
  %106 = zext i8 %105 to i32
  %107 = shl nuw nsw i32 %106, 2
  %108 = add i32 %8, 5
  %109 = zext i32 %108 to i64
  %110 = getelementptr inbounds nuw i8, ptr %3, i64 %109
  %111 = load i8, ptr %110, align 1, !tbaa !89
  %112 = lshr i8 %111, 6
  %113 = zext nneg i8 %112 to i32
  %114 = or disjoint i32 %107, %113
  %115 = getelementptr inbounds nuw i8, ptr %0, i64 32
  store i32 %114, ptr %115, align 8, !tbaa !103
  %116 = load i8, ptr %110, align 1, !tbaa !89
  %117 = zext i8 %116 to i32
  %118 = shl nuw nsw i32 %117, 4
  %119 = add i32 %8, 4
  %120 = zext i32 %119 to i64
  %121 = getelementptr inbounds nuw i8, ptr %3, i64 %120
  %122 = load i8, ptr %121, align 1, !tbaa !89
  %123 = lshr i8 %122, 4
  %124 = zext nneg i8 %123 to i32
  %.masked2 = and i32 %118, 1008
  %125 = or disjoint i32 %.masked2, %124
  %126 = getelementptr inbounds nuw i8, ptr %0, i64 36
  store i32 %125, ptr %126, align 4, !tbaa !103
  %127 = load i8, ptr %121, align 1, !tbaa !89
  %128 = lshr i8 %127, 2
  %129 = and i8 %128, 3
  %130 = zext nneg i8 %129 to i32
  %131 = getelementptr inbounds nuw i8, ptr %0, i64 40
  store i32 %130, ptr %131, align 8, !tbaa !103
  %132 = load i8, ptr %121, align 1, !tbaa !89
  %133 = and i8 %132, 3
  %134 = zext nneg i8 %133 to i32
  %135 = shl nuw nsw i32 %134, 8
  %136 = add i32 %8, 3
  %137 = zext i32 %136 to i64
  %138 = getelementptr inbounds nuw i8, ptr %3, i64 %137
  %139 = load i8, ptr %138, align 1, !tbaa !89
  %140 = zext i8 %139 to i32
  %141 = or disjoint i32 %135, %140
  %142 = getelementptr inbounds nuw i8, ptr %0, i64 44
  store i32 %141, ptr %142, align 4, !tbaa !103
  %143 = add i32 %8, 2
  %144 = zext i32 %143 to i64
  %145 = getelementptr inbounds nuw i8, ptr %3, i64 %144
  %146 = load i8, ptr %145, align 1, !tbaa !89
  %147 = zext i8 %146 to i32
  %148 = shl nuw nsw i32 %147, 2
  %149 = add i32 %8, 1
  %150 = zext i32 %149 to i64
  %151 = getelementptr inbounds nuw i8, ptr %3, i64 %150
  %152 = load i8, ptr %151, align 1, !tbaa !89
  %153 = lshr i8 %152, 6
  %154 = zext nneg i8 %153 to i32
  %155 = or disjoint i32 %148, %154
  %156 = getelementptr inbounds nuw i8, ptr %0, i64 48
  store i32 %155, ptr %156, align 8, !tbaa !103
  %157 = load i8, ptr %151, align 1, !tbaa !89
  %158 = zext i8 %157 to i32
  %159 = shl nuw nsw i32 %158, 4
  %160 = zext i32 %8 to i64
  %161 = getelementptr inbounds nuw i8, ptr %3, i64 %160
  %162 = load i8, ptr %161, align 1, !tbaa !89
  %163 = lshr i8 %162, 4
  %164 = zext nneg i8 %163 to i32
  %.masked3 = and i32 %159, 1008
  %165 = or disjoint i32 %.masked3, %164
  %166 = getelementptr inbounds nuw i8, ptr %0, i64 52
  store i32 %165, ptr %166, align 4, !tbaa !103
  %167 = getelementptr inbounds nuw i8, ptr %0, i64 80
  store i8 0, ptr %167, align 8, !tbaa !141
  %168 = add i32 %8, 16
  store i32 %168, ptr %7, align 8, !tbaa !140
  ret void
}